; Function Attrs: nounwind uwtable
define hidden void @_ir_BEGIN(ptr nocapture noundef %0, i32 noundef %1) local_unnamed_addr #0 {
  %.not = icmp eq i32 %1, 0
  br i1 %.not, label %._crit_edge, label %3

._crit_edge:                                      ; preds = %2
  %.phi.trans.insert = getelementptr inbounds i8, ptr %0, i64 8
  %.pre = load i32, ptr %.phi.trans.insert, align 8
  %.pre.i.i.pre = load ptr, ptr %0, align 8
  br label %17

3:                                                ; preds = %2
  %4 = add nsw i32 %1, 1
  %5 = getelementptr inbounds i8, ptr %0, i64 8
  %6 = load i32, ptr %5, align 8
  %7 = icmp eq i32 %4, %6
  %.pre.i.i.pre11 = load ptr, ptr %0, align 8
  br i1 %7, label %8, label %17

8:                                                ; preds = %3
  %9 = sext i32 %1 to i64
  %10 = getelementptr inbounds %struct._ir_insn, ptr %.pre.i.i.pre11, i64 %9
  %11 = load i8, ptr %10, align 8
  %12 = icmp eq i8 %11, 98
  br i1 %12, label %13, label %17

13:                                               ; preds = %8
  %14 = getelementptr inbounds i8, ptr %10, i64 4
  %15 = load i32, ptr %14, align 4
  %16 = getelementptr inbounds i8, ptr %0, i64 248
  store i32 %15, ptr %16, align 8
  store i32 %1, ptr %5, align 8
  br label %47

17:                                               ; preds = %._crit_edge, %8, %3
  %.pre.i.i = phi ptr [ %.pre.i.i.pre, %._crit_edge ], [ %.pre.i.i.pre11, %8 ], [ %.pre.i.i.pre11, %3 ]
  %18 = phi i32 [ %.pre, %._crit_edge ], [ %4, %8 ], [ %6, %3 ]
  %19 = getelementptr inbounds i8, ptr %0, i64 8
  %20 = getelementptr inbounds i8, ptr %0, i64 12
  %21 = load i32, ptr %20, align 4
  %.not.i.i.i = icmp slt i32 %18, %21
  br i1 %.not.i.i.i, label %ir_emit1.exit, label %22

22:                                               ; preds = %17
  %23 = getelementptr inbounds i8, ptr %0, i64 20
  %24 = load i32, ptr %23, align 4
  %25 = icmp slt i32 %21, 4096
  %26 = shl nsw i32 %21, 1
  %27 = icmp ult i32 %21, 8192
  %28 = add nuw nsw i32 %21, 4096
  %spec.select.i.i.i.i = select i1 %27, i32 8192, i32 %28
  %.sink.i.i.i.i = select i1 %25, i32 %26, i32 %spec.select.i.i.i.i
  store i32 %.sink.i.i.i.i, ptr %20, align 4
  %29 = sext i32 %24 to i64
  %30 = sub nsw i64 0, %29
  %31 = getelementptr inbounds %struct._ir_insn, ptr %.pre.i.i, i64 %30
  %32 = add nsw i32 %24, %.sink.i.i.i.i
  %33 = sext i32 %32 to i64
  %34 = shl nsw i64 %33, 4
  %35 = tail call ptr @_erealloc(ptr noundef %31, i64 noundef %34) #24
  %36 = load i32, ptr %23, align 4
  %37 = sext i32 %36 to i64
  %38 = getelementptr inbounds %struct._ir_insn, ptr %35, i64 %37
  store ptr %38, ptr %0, align 8
  br label %ir_emit1.exit

ir_emit1.exit:                                    ; preds = %17, %22
  %39 = phi ptr [ %.pre.i.i, %17 ], [ %38, %22 ]
  %40 = add nsw i32 %18, 1
  store i32 %40, ptr %19, align 8
  %41 = sext i32 %18 to i64
  %42 = getelementptr inbounds %struct._ir_insn, ptr %39, i64 %41
  store i32 91, ptr %42, align 8
  %43 = getelementptr inbounds i8, ptr %42, i64 4
  store i32 %1, ptr %43, align 4
  %44 = getelementptr inbounds i8, ptr %42, i64 8
  store i32 0, ptr %44, align 8
  %45 = getelementptr inbounds i8, ptr %42, i64 12
  store i32 0, ptr %45, align 4
  %46 = getelementptr inbounds i8, ptr %0, i64 248
  store i32 %18, ptr %46, align 8
  br label %47

47:                                               ; preds = %ir_emit1.exit, %13
  ret void
}